target datalayout = "e-m:e-p270:32:32-p271:32:32-p272:64:64-i64:64-i128:128-f80:128-n8:16:32:64-S128"
target triple = "x86_64-pc-linux-gnu"

@.str.7 = private unnamed_addr constant [11 x i8] c"hostlist.c\00", align 1
@__func__.hostlist_ranged_string_xmalloc_dims = private unnamed_addr constant [36 x i8] c"hostlist_ranged_string_xmalloc_dims\00", align 1

; Function Attrs: nounwind uwtable
define dso_local ptr @hostlist_ranged_string_xmalloc_dims(ptr noundef %0, i32 noundef %1, i32 noundef %2) #0 {
  %4 = alloca ptr, align 8
  %5 = alloca i32, align 4
  %6 = alloca i32, align 4
  %7 = alloca i32, align 4
  %8 = alloca ptr, align 8
  store ptr %0, ptr %4, align 8
  store i32 %1, ptr %5, align 4
  store i32 %2, ptr %6, align 4
  call void @llvm.lifetime.start.p0(i64 4, ptr %7) #13
  store i32 8192, ptr %7, align 4
  call void @llvm.lifetime.start.p0(i64 8, ptr %8) #13
  %9 = load i32, ptr %7, align 4
  %10 = sext i32 %9 to i64
  %11 = call ptr @slurm_xcalloc(i64 noundef 1, i64 noundef %10, i1 noundef zeroext false, i1 noundef zeroext false, ptr noundef @.str.7, i32 noundef 2850, ptr noundef @__func__.hostlist_ranged_string_xmalloc_dims)
  store ptr %11, ptr %8, align 8
  br label %12

12:                                               ; preds = %21, %3
  %13 = load ptr, ptr %4, align 8
  %14 = load i32, ptr %7, align 4
  %15 = sext i32 %14 to i64
  %16 = load ptr, ptr %8, align 8
  %17 = load i32, ptr %5, align 4
  %18 = load i32, ptr %6, align 4
  %19 = call i64 @hostlist_ranged_string_dims(ptr noundef %13, i64 noundef %15, ptr noundef %16, i32 noundef %17, i32 noundef %18)
  %20 = icmp slt i64 %19, 0
  br i1 %20, label %21, label %27

21:                                               ; preds = %12
  %22 = load i32, ptr %7, align 4
  %23 = mul nsw i32 %22, 2
  store i32 %23, ptr %7, align 4
  %24 = load i32, ptr %7, align 4
  %25 = sext i32 %24 to i64
  %26 = call ptr @slurm_xrecalloc(ptr noundef %8, i64 noundef 1, i64 noundef %25, i1 noundef zeroext false, i1 noundef zeroext false, ptr noundef @.str.7, i32 noundef 2854, ptr noundef @__func__.hostlist_ranged_string_xmalloc_dims)
  br label %12, !llvm.loop !28

27:                                               ; preds = %12
  %28 = load ptr, ptr %8, align 8
  call void @llvm.lifetime.end.p0(i64 8, ptr %8) #13
  call void @llvm.lifetime.end.p0(i64 4, ptr %7) #13
  ret ptr %28
}