; Function Attrs: nounwind uwtable
define dso_local ptr @hostlist_ranged_string_xmalloc_dims(ptr noundef %0, i32 noundef %1, i32 noundef %2) #0 {
  %4 = alloca ptr, align 8
  call void @llvm.lifetime.start.p0(i64 8, ptr nonnull %4) #22
  %5 = tail call ptr @slurm_xcalloc(i64 noundef 1, i64 noundef 8192, i1 noundef zeroext false, i1 noundef zeroext false, ptr noundef nonnull @.str.7, i32 noundef 2850, ptr noundef nonnull @__func__.hostlist_ranged_string_xmalloc_dims) #22
  store ptr %5, ptr %4, align 8
  %6 = tail call i64 @hostlist_ranged_string_dims(ptr noundef %0, i64 noundef 8192, ptr noundef %5, i32 noundef %1, i32 noundef %2)
  %7 = icmp slt i64 %6, 0
  br i1 %7, label %.lr.ph, label %._crit_edge

.lr.ph:                                           ; preds = %3, %.lr.ph
  %.06 = phi i32 [ %8, %.lr.ph ], [ 8192, %3 ]
  %8 = shl nsw i32 %.06, 1
  %9 = sext i32 %8 to i64
  %10 = call ptr @slurm_xrecalloc(ptr noundef nonnull %4, i64 noundef 1, i64 noundef %9, i1 noundef zeroext false, i1 noundef zeroext false, ptr noundef nonnull @.str.7, i32 noundef 2854, ptr noundef nonnull @__func__.hostlist_ranged_string_xmalloc_dims) #22
  %11 = zext nneg i32 %8 to i64
  %12 = load ptr, ptr %4, align 8
  %13 = call i64 @hostlist_ranged_string_dims(ptr noundef %0, i64 noundef %11, ptr noundef %12, i32 noundef %1, i32 noundef %2)
  %14 = icmp slt i64 %13, 0
  br i1 %14, label %.lr.ph, label %._crit_edge.loopexit, !llvm.loop !35

._crit_edge.loopexit:                             ; preds = %.lr.ph
  %.pre = load ptr, ptr %4, align 8
  br label %._crit_edge

._crit_edge:                                      ; preds = %._crit_edge.loopexit, %3
  %15 = phi ptr [ %.pre, %._crit_edge.loopexit ], [ %5, %3 ]
  call void @llvm.lifetime.end.p0(i64 8, ptr nonnull %4) #22
  ret ptr %15
}